; Function Attrs: mustprogress nofree norecurse nosync nounwind memory(readwrite, inaccessiblemem: none) uwtable
define hidden void @_ZN12methodHandleD2Ev(ptr nocapture noundef nonnull readonly align 8 dereferenceable(16) %0) unnamed_addr #1 align 2 {
  %2 = load ptr, ptr %0, align 8
  %.not.i = icmp eq ptr %2, null
  br i1 %.not.i, label %_ZN12methodHandle6removeEv.exit, label %3

3:                                                ; preds = %1
  %4 = getelementptr inbounds i8, ptr %0, i64 8
  %5 = load ptr, ptr %4, align 8
  %6 = getelementptr inbounds i8, ptr %5, i64 816
  %7 = load ptr, ptr %6, align 8
  %8 = load i32, ptr %7, align 8
  %9 = getelementptr inbounds i8, ptr %7, i64 8
  %10 = load ptr, ptr %9, align 8
  %11 = zext i32 %8 to i64
  br label %12

12:                                               ; preds = %15, %3
  %indvars.iv.i.i = phi i64 [ %indvars.iv.next.i.i, %15 ], [ %11, %3 ]
  %13 = trunc nuw i64 %indvars.iv.i.i to i32
  %14 = icmp sgt i32 %13, 0
  br i1 %14, label %15, label %_ZNK17GrowableArrayViewIP8MetadataE13find_from_endERKS1_.exit.i

15:                                               ; preds = %12
  %indvars.iv.next.i.i = add nsw i64 %indvars.iv.i.i, -1
  %16 = and i64 %indvars.iv.next.i.i, 4294967295
  %17 = getelementptr inbounds ptr, ptr %10, i64 %16
  %18 = load ptr, ptr %17, align 8
  %19 = icmp eq ptr %18, %2
  br i1 %19, label %.split.loop.exit8.i.i, label %12, !llvm.loop !6

.split.loop.exit8.i.i:                            ; preds = %15
  %indvars.le.i.i = trunc i64 %indvars.iv.next.i.i to i32
  br label %_ZNK17GrowableArrayViewIP8MetadataE13find_from_endERKS1_.exit.i

_ZNK17GrowableArrayViewIP8MetadataE13find_from_endERKS1_.exit.i: ; preds = %12, %.split.loop.exit8.i.i
  %.06.i.i = phi i32 [ %indvars.le.i.i, %.split.loop.exit8.i.i ], [ -1, %12 ]
  %.06.i1.i = add nsw i32 %.06.i.i, 1
  %20 = icmp slt i32 %.06.i1.i, %8
  br i1 %20, label %.lr.ph.i.i, label %_ZN17GrowableArrayViewIP8MetadataE9remove_atEi.exit.i

.lr.ph.i.i:                                       ; preds = %_ZNK17GrowableArrayViewIP8MetadataE13find_from_endERKS1_.exit.i
  %21 = sext i32 %.06.i.i to i64
  %22 = add nsw i64 %21, 1
  br label %23

23:                                               ; preds = %23, %.lr.ph.i.i
  %indvars.iv10.i.i = phi i64 [ %21, %.lr.ph.i.i ], [ %indvars.iv.next11.i.i, %23 ]
  %indvars.iv.i2.i = phi i64 [ %22, %.lr.ph.i.i ], [ %indvars.iv.next.i3.i, %23 ]
  %24 = load ptr, ptr %9, align 8
  %25 = getelementptr inbounds ptr, ptr %24, i64 %indvars.iv.i2.i
  %26 = load ptr, ptr %25, align 8
  %27 = getelementptr inbounds ptr, ptr %24, i64 %indvars.iv10.i.i
  store ptr %26, ptr %27, align 8
  %indvars.iv.next.i3.i = add nuw nsw i64 %indvars.iv.i2.i, 1
  %28 = load i32, ptr %7, align 8
  %29 = sext i32 %28 to i64
  %30 = icmp slt i64 %indvars.iv.next.i3.i, %29
  %indvars.iv.next11.i.i = add nsw i64 %indvars.iv10.i.i, 1
  br i1 %30, label %23, label %_ZN17GrowableArrayViewIP8MetadataE9remove_atEi.exit.i, !llvm.loop !8

_ZN17GrowableArrayViewIP8MetadataE9remove_atEi.exit.i: ; preds = %23, %_ZNK17GrowableArrayViewIP8MetadataE13find_from_endERKS1_.exit.i
  %.lcssa.i.i = phi i32 [ %8, %_ZNK17GrowableArrayViewIP8MetadataE13find_from_endERKS1_.exit.i ], [ %28, %23 ]
  %31 = add nsw i32 %.lcssa.i.i, -1
  store i32 %31, ptr %7, align 8
  br label %_ZN12methodHandle6removeEv.exit

_ZN12methodHandle6removeEv.exit:                  ; preds = %1, %_ZN17GrowableArrayViewIP8MetadataE9remove_atEi.exit.i
  ret void
}